; ModuleID = 'source-C-CXX/53/895.c'
source_filename = "source-C-CXX/53/895.c"
target datalayout = "e-m:e-p270:32:32-p271:32:32-p272:64:64-i64:64-f80:128-n8:16:32:64-S128"
target triple = "x86_64-pc-linux-gnu"

@.str = private unnamed_addr constant [5 x i8] c"%d%d\00", align 1
@.str.1 = private unnamed_addr constant [3 x i8] c"%d\00", align 1

; Function Attrs: nofree nounwind sspstrong uwtable
define dso_local void @main() local_unnamed_addr #0 {
  %1 = alloca i32, align 4
  %2 = alloca i32, align 4
  %3 = bitcast i32* %1 to i8*
  call void @llvm.lifetime.start.p0i8(i64 4, i8* nonnull %3) #4
  %4 = bitcast i32* %2 to i8*
  call void @llvm.lifetime.start.p0i8(i64 4, i8* nonnull %4) #4
  %5 = call i32 (i8*, ...) @__isoc99_scanf(i8* getelementptr inbounds ([5 x i8], [5 x i8]* @.str, i64 0, i64 0), i32* nonnull %1, i32* nonnull %2)
  %6 = load i32, i32* %1, align 4, !tbaa !5
  %7 = load i32, i32* %2, align 4, !tbaa !5
  br label %8

8:                                                ; preds = %8, %0
  %9 = phi i32 [ 1, %0 ], [ %14, %8 ]
  %10 = call double @a(i32 %6, i32 %7, i32 %9, i32 %6)
  %11 = fptosi double %10 to i32
  %12 = sitofp i32 %11 to double
  %13 = fcmp oeq double %10, %12
  %14 = add nuw nsw i32 %9, 1
  br i1 %13, label %15, label %8

15:                                               ; preds = %8
  %16 = sitofp i32 %6 to double
  %17 = fmul double %10, %16
  %18 = sitofp i32 %7 to double
  %19 = fadd double %17, %18
  %20 = fptosi double %19 to i32
  %21 = call i32 (i8*, ...) @printf(i8* nonnull dereferenceable(1) getelementptr inbounds ([3 x i8], [3 x i8]* @.str.1, i64 0, i64 0), i32 %20)
  call void @llvm.lifetime.end.p0i8(i64 4, i8* nonnull %4) #4
  call void @llvm.lifetime.end.p0i8(i64 4, i8* nonnull %3) #4
  ret void
}

; Function Attrs: argmemonly mustprogress nofree nosync nounwind willreturn
declare void @llvm.lifetime.start.p0i8(i64 immarg, i8* nocapture) #1

; Function Attrs: nofree nounwind
declare noundef i32 @__isoc99_scanf(i8* nocapture noundef readonly, ...) local_unnamed_addr #2

; Function Attrs: nofree nosync nounwind readnone sspstrong uwtable
define dso_local double @a(i32 %0, i32 %1, i32 %2, i32 %3) local_unnamed_addr #3 {
  %5 = icmp eq i32 %3, 1
  %6 = sitofp i32 %2 to double
  %7 = select i1 %5, double %6, double undef
  %8 = icmp sgt i32 %3, 1
  br i1 %8, label %11, label %9

9:                                                ; preds = %4, %11
  %10 = phi double [ %20, %11 ], [ %7, %4 ]
  ret double %10

11:                                               ; preds = %4
  %12 = sitofp i32 %0 to double
  %13 = add nsw i32 %3, -1
  %14 = tail call double @a(i32 %0, i32 %1, i32 %2, i32 %13)
  %15 = fmul double %14, %12
  %16 = sitofp i32 %1 to double
  %17 = fadd double %15, %16
  %18 = add nsw i32 %0, -1
  %19 = sitofp i32 %18 to double
  %20 = fdiv double %17, %19
  br label %9
}

; Function Attrs: nofree nounwind
declare noundef i32 @printf(i8* nocapture noundef readonly, ...) local_unnamed_addr #2

; Function Attrs: argmemonly mustprogress nofree nosync nounwind willreturn
declare void @llvm.lifetime.end.p0i8(i64 immarg, i8* nocapture) #1


!llvm.module.flags = !{!0, !1, !2, !3}
!llvm.ident = !{!4}

!0 = !{i32 1, !"wchar_size", i32 4}
!1 = !{i32 7, !"PIC Level", i32 2}
!2 = !{i32 7, !"PIE Level", i32 2}
!3 = !{i32 7, !"uwtable", i32 1}
!4 = !{!"clang version 13.0.0"}
!5 = !{!6, !6, i64 0}
!6 = !{!"int", !7, i64 0}
!7 = !{!"omnipotent char", !8, i64 0}
!8 = !{!"Simple C/C++ TBAA"}
